; Function Attrs: mustprogress nounwind uwtable
define noundef i64 @_ZNK18OpenImageIO_v2_6_09ImageSpec11pixel_bytesEb(ptr noundef nonnull align 8 dereferenceable(160) %this, i1 noundef zeroext %native) local_unnamed_addr #3 align 2 personality ptr @__gxx_personality_v0 {
entry:
  %nchannels = getelementptr inbounds i8, ptr %this, i64 60
  %0 = load i32, ptr %nchannels, align 4
  %cmp = icmp slt i32 %0, 0
  br i1 %cmp, label %return, label %if.end

if.end:                                           ; preds = %entry
  br i1 %native, label %lor.lhs.false, label %if.then2

lor.lhs.false:                                    ; preds = %if.end
  %channelformats = getelementptr inbounds i8, ptr %this, i64 72
  %1 = load ptr, ptr %channelformats, align 8
  %_M_finish.i.i = getelementptr inbounds i8, ptr %this, i64 80
  %2 = load ptr, ptr %_M_finish.i.i, align 8
  %cmp.i.i = icmp eq ptr %1, %2
  br i1 %cmp.i.i, label %if.then2, label %for.cond.preheader

for.cond.preheader:                               ; preds = %lor.lhs.false
  %cmp106.not = icmp eq i32 %0, 0
  br i1 %cmp106.not, label %return, label %for.body

if.then2:                                         ; preds = %lor.lhs.false, %if.end
  %format.i = getelementptr inbounds i8, ptr %this, i64 64
  %arraylen.i.i = getelementptr inbounds i8, ptr %this, i64 68
  %3 = load i32, ptr %arraylen.i.i, align 4
  %narrow.i.i = tail call i32 @llvm.smax.i32(i32 %3, i32 1)
  %aggregate.i.i.i = getelementptr inbounds i8, ptr %this, i64 65
  %4 = load i8, ptr %aggregate.i.i.i, align 1
  %conv.i.i.i = zext i8 %4 to i64
  %call.i.i.i = tail call noundef i64 @_ZNK18OpenImageIO_v2_6_08TypeDesc8basesizeEv(ptr noundef nonnull align 4 dereferenceable(8) %format.i) #28
  %mul.i.i.i = mul i64 %call.i.i.i, %conv.i.i.i
  %5 = trunc i64 %mul.i.i.i to i32
  %conv6 = mul i32 %narrow.i.i, %5
  %conv.i = zext nneg i32 %0 to i64
  %conv1.i = zext i32 %conv6 to i64
  %mul.i = mul nuw nsw i64 %conv1.i, %conv.i
  %cond2.i = tail call i64 @llvm.umin.i64(i64 %mul.i, i64 4294967295)
  br label %return

for.body:                                         ; preds = %for.cond.preheader, %for.body
  %indvars.iv = phi i64 [ %indvars.iv.next, %for.body ], [ 0, %for.cond.preheader ]
  %sum.07 = phi i64 [ %add, %for.body ], [ 0, %for.cond.preheader ]
  %6 = load ptr, ptr %channelformats, align 8
  %add.ptr.i = getelementptr inbounds %"struct.OpenImageIO_v2_6_0::TypeDesc", ptr %6, i64 %indvars.iv
  %arraylen.i = getelementptr inbounds i8, ptr %add.ptr.i, i64 4
  %7 = load i32, ptr %arraylen.i, align 4
  %narrow.i = tail call i32 @llvm.smax.i32(i32 %7, i32 1)
  %spec.select.i = zext nneg i32 %narrow.i to i64
  %aggregate.i.i = getelementptr inbounds i8, ptr %add.ptr.i, i64 1
  %8 = load i8, ptr %aggregate.i.i, align 1
  %conv.i.i = zext i8 %8 to i64
  %call.i.i = tail call noundef i64 @_ZNK18OpenImageIO_v2_6_08TypeDesc8basesizeEv(ptr noundef nonnull align 4 dereferenceable(8) %add.ptr.i) #28
  %mul.i.i4 = mul i64 %call.i.i, %conv.i.i
  %mul.i5 = mul i64 %mul.i.i4, %spec.select.i
  %add = add i64 %mul.i5, %sum.07
  %indvars.iv.next = add nuw nsw i64 %indvars.iv, 1
  %9 = load i32, ptr %nchannels, align 4
  %10 = sext i32 %9 to i64
  %cmp10 = icmp slt i64 %indvars.iv.next, %10
  br i1 %cmp10, label %for.body, label %return, !llvm.loop !11

return:                                           ; preds = %for.body, %for.cond.preheader, %entry, %if.then2
  %retval.0 = phi i64 [ %cond2.i, %if.then2 ], [ 0, %entry ], [ 0, %for.cond.preheader ], [ %add, %for.body ]
  ret i64 %retval.0
}